target datalayout = "e-m:e-p270:32:32-p271:32:32-p272:64:64-i64:64-i128:128-f80:128-n8:16:32:64-S128"
target triple = "x86_64-unknown-linux-gnu"

%"class.icu_75::UObject" = type { ptr }
%"class.icu_75::MeasureFormat" = type { %"class.icu_75::Format.base", ptr, ptr, ptr, i32, ptr }
%"class.icu_75::Format.base" = type <{ %"class.icu_75::UObject", [157 x i8], [157 x i8] }>

; Function Attrs: mustprogress uwtable
define void @_ZN6icu_7513MeasureFormatC2ERKNS_6LocaleE19UMeasureFormatWidthR10UErrorCode(ptr noundef nonnull align 8 dereferenceable(368) %this, ptr noundef nonnull align 8 dereferenceable(217) %locale, i32 noundef %w, ptr noundef nonnull align 4 dereferenceable(4) %status) unnamed_addr #1 align 2 personality ptr @__gxx_personality_v0 {
entry:
  %this.addr = alloca ptr, align 8
  %locale.addr = alloca ptr, align 8
  %w.addr = alloca i32, align 4
  %status.addr = alloca ptr, align 8
  %exn.slot = alloca ptr, align 8
  %ehselector.slot = alloca i32, align 4
  store ptr %this, ptr %this.addr, align 8
  store ptr %locale, ptr %locale.addr, align 8
  store i32 %w, ptr %w.addr, align 4
  store ptr %status, ptr %status.addr, align 8
  %this1 = load ptr, ptr %this.addr, align 8
  call void @_ZN6icu_756FormatC2Ev(ptr noundef nonnull align 8 dereferenceable(322) %this1)
  store ptr getelementptr inbounds ({ [10 x ptr] }, ptr @_ZTVN6icu_7513MeasureFormatE, i32 0, i32 0, i32 2), ptr %this1, align 8
  %cache = getelementptr inbounds %"class.icu_75::MeasureFormat", ptr %this1, i32 0, i32 1
  store ptr null, ptr %cache, align 8
  %numberFormat = getelementptr inbounds %"class.icu_75::MeasureFormat", ptr %this1, i32 0, i32 2
  store ptr null, ptr %numberFormat, align 8
  %pluralRules = getelementptr inbounds %"class.icu_75::MeasureFormat", ptr %this1, i32 0, i32 3
  store ptr null, ptr %pluralRules, align 8
  %fWidth = getelementptr inbounds %"class.icu_75::MeasureFormat", ptr %this1, i32 0, i32 4
  %0 = load i32, ptr %w.addr, align 4
  store i32 %0, ptr %fWidth, align 8
  %listFormatter = getelementptr inbounds %"class.icu_75::MeasureFormat", ptr %this1, i32 0, i32 5
  store ptr null, ptr %listFormatter, align 8
  %1 = load ptr, ptr %locale.addr, align 8
  %2 = load i32, ptr %w.addr, align 4
  %3 = load ptr, ptr %status.addr, align 8
  invoke void @_ZN6icu_7513MeasureFormat17initMeasureFormatERKNS_6LocaleE19UMeasureFormatWidthPNS_12NumberFormatER10UErrorCode(ptr noundef nonnull align 8 dereferenceable(368) %this1, ptr noundef nonnull align 8 dereferenceable(217) %1, i32 noundef %2, ptr noundef null, ptr noundef nonnull align 4 dereferenceable(4) %3)
          to label %invoke.cont unwind label %lpad

invoke.cont:                                      ; preds = %entry
  ret void

lpad:                                             ; preds = %entry
  %4 = landingpad { ptr, i32 }
          cleanup
  %5 = extractvalue { ptr, i32 } %4, 0
  store ptr %5, ptr %exn.slot, align 8
  %6 = extractvalue { ptr, i32 } %4, 1
  store i32 %6, ptr %ehselector.slot, align 4
  call void @_ZN6icu_756FormatD2Ev(ptr noundef nonnull align 8 dereferenceable(322) %this1) #12
  br label %eh.resume

eh.resume:                                        ; preds = %lpad
  %exn = load ptr, ptr %exn.slot, align 8
  %sel = load i32, ptr %ehselector.slot, align 4
  %lpad.val = insertvalue { ptr, i32 } poison, ptr %exn, 0
  %lpad.val2 = insertvalue { ptr, i32 } %lpad.val, i32 %sel, 1
  resume { ptr, i32 } %lpad.val2
}